target datalayout = "e-m:e-p270:32:32-p271:32:32-p272:64:64-i64:64-i128:128-f80:128-n8:16:32:64-S128"
target triple = "x86_64-pc-linux-gnu"

%struct.AVFilterContext = type { ptr, ptr, ptr, ptr, ptr, i32, ptr, ptr, i32, ptr, ptr, i32, i32, ptr, ptr, ptr, ptr, i32, ptr, i32, i32 }
%struct.DeflickerContext = type { ptr, i32, i32, i32, i32, i32, i32, [4 x i32], [4 x i32], ptr, [129 x float], [129 x float], %struct.FFBufQueue, i32, ptr, ptr, ptr }
%struct.FFBufQueue = type { [129 x ptr], i16, i16 }

; Function Attrs: nounwind uwtable
define internal void @get_hm_factor(ptr noundef %0, ptr noundef %1) #1 {
  %3 = alloca ptr, align 8
  %4 = alloca ptr, align 8
  %5 = alloca ptr, align 8
  %6 = alloca i32, align 4
  store ptr %0, ptr %3, align 8, !tbaa !4
  store ptr %1, ptr %4, align 8, !tbaa !93
  call void @llvm.lifetime.start.p0(i64 8, ptr %5) #13
  %7 = load ptr, ptr %3, align 8, !tbaa !4
  %8 = getelementptr inbounds nuw %struct.AVFilterContext, ptr %7, i32 0, i32 9
  %9 = load ptr, ptr %8, align 8, !tbaa !9
  store ptr %9, ptr %5, align 8, !tbaa !22
  call void @llvm.lifetime.start.p0(i64 4, ptr %6) #13
  %10 = load ptr, ptr %4, align 8, !tbaa !93
  store float 0.000000e+00, ptr %10, align 4, !tbaa !46
  store i32 0, ptr %6, align 4, !tbaa !54
  br label %11

11:                                               ; preds = %28, %2
  %12 = load i32, ptr %6, align 4, !tbaa !54
  %13 = load ptr, ptr %5, align 8, !tbaa !22
  %14 = getelementptr inbounds nuw %struct.DeflickerContext, ptr %13, i32 0, i32 1
  %15 = load i32, ptr %14, align 8, !tbaa !42
  %16 = icmp slt i32 %12, %15
  br i1 %16, label %17, label %31

17:                                               ; preds = %11
  %18 = load ptr, ptr %5, align 8, !tbaa !22
  %19 = getelementptr inbounds nuw %struct.DeflickerContext, ptr %18, i32 0, i32 10
  %20 = load i32, ptr %6, align 4, !tbaa !54
  %21 = sext i32 %20 to i64
  %22 = getelementptr inbounds [129 x float], ptr %19, i64 0, i64 %21
  %23 = load float, ptr %22, align 4, !tbaa !46
  %24 = fdiv nsz float 1.000000e+00, %23
  %25 = load ptr, ptr %4, align 8, !tbaa !93
  %26 = load float, ptr %25, align 4, !tbaa !46
  %27 = fadd nsz float %26, %24
  store float %27, ptr %25, align 4, !tbaa !46
  br label %28

28:                                               ; preds = %17
  %29 = load i32, ptr %6, align 4, !tbaa !54
  %30 = add nsw i32 %29, 1
  store i32 %30, ptr %6, align 4, !tbaa !54
  br label %11, !llvm.loop !103

31:                                               ; preds = %11
  %32 = load ptr, ptr %5, align 8, !tbaa !22
  %33 = getelementptr inbounds nuw %struct.DeflickerContext, ptr %32, i32 0, i32 1
  %34 = load i32, ptr %33, align 8, !tbaa !42
  %35 = sitofp i32 %34 to float
  %36 = load ptr, ptr %4, align 8, !tbaa !93
  %37 = load float, ptr %36, align 4, !tbaa !46
  %38 = fdiv nsz float %35, %37
  %39 = load ptr, ptr %4, align 8, !tbaa !93
  store float %38, ptr %39, align 4, !tbaa !46
  %40 = load ptr, ptr %5, align 8, !tbaa !22
  %41 = getelementptr inbounds nuw %struct.DeflickerContext, ptr %40, i32 0, i32 10
  %42 = getelementptr inbounds [129 x float], ptr %41, i64 0, i64 0
  %43 = load float, ptr %42, align 8, !tbaa !46
  %44 = load ptr, ptr %4, align 8, !tbaa !93
  %45 = load float, ptr %44, align 4, !tbaa !46
  %46 = fdiv nsz float %45, %43
  store float %46, ptr %44, align 4, !tbaa !46
  call void @llvm.lifetime.end.p0(i64 4, ptr %6) #13
  call void @llvm.lifetime.end.p0(i64 8, ptr %5) #13
  ret void
}