; Function Attrs: nofree norecurse nosync nounwind memory(read, argmem: readwrite, inaccessiblemem: none) uwtable
define internal void @get_hm_factor(ptr noundef readonly captures(none) %0, ptr noundef writeonly captures(none) initializes((0, 4)) %1) #9 {
  %3 = getelementptr inbounds nuw i8, ptr %0, i64 72
  %4 = load ptr, ptr %3, align 8, !tbaa !4
  store float 0.000000e+00, ptr %1, align 4, !tbaa !47
  %5 = getelementptr inbounds nuw i8, ptr %4, i64 8
  %6 = load i32, ptr %5, align 8, !tbaa !43
  %7 = icmp sgt i32 %6, 0
  br i1 %7, label %.lr.ph, label %._crit_edge

.lr.ph:                                           ; preds = %2
  %8 = getelementptr inbounds nuw i8, ptr %4, i64 72
  %wide.trip.count = zext nneg i32 %6 to i64
  br label %9

9:                                                ; preds = %.lr.ph, %9
  %indvars.iv = phi i64 [ 0, %.lr.ph ], [ %indvars.iv.next, %9 ]
  %10 = phi float [ 0.000000e+00, %.lr.ph ], [ %14, %9 ]
  %11 = getelementptr inbounds nuw [129 x float], ptr %8, i64 0, i64 %indvars.iv
  %12 = load float, ptr %11, align 4, !tbaa !47
  %13 = fdiv nsz float 1.000000e+00, %12
  %14 = fadd nsz float %10, %13
  store float %14, ptr %1, align 4, !tbaa !47
  %indvars.iv.next = add nuw nsw i64 %indvars.iv, 1
  %exitcond.not = icmp eq i64 %indvars.iv.next, %wide.trip.count
  br i1 %exitcond.not, label %._crit_edge, label %9, !llvm.loop !89

._crit_edge:                                      ; preds = %9, %2
  %15 = phi float [ 0.000000e+00, %2 ], [ %14, %9 ]
  %16 = sitofp i32 %6 to float
  %17 = fdiv nsz float %16, %15
  store float %17, ptr %1, align 4, !tbaa !47
  %18 = getelementptr inbounds nuw i8, ptr %4, i64 72
  %19 = load float, ptr %18, align 8, !tbaa !47
  %20 = fdiv nsz float %17, %19
  store float %20, ptr %1, align 4, !tbaa !47
  ret void
}